target datalayout = "e-m:e-p270:32:32-p271:32:32-p272:64:64-i64:64-i128:128-f80:128-n8:16:32:64-S128"
target triple = "x86_64-pc-linux-gnu"

%struct.HTTPContext = type { ptr, ptr, [8192 x i8], ptr, ptr, i32, i32, i64, i32, i64, i64, i64, ptr, ptr, %struct.HTTPAuthState, %struct.HTTPAuthState, ptr, ptr, ptr, ptr, ptr, ptr, ptr, i32, i32, i32, i32, i32, i32, ptr, i32, i32, i32, ptr, ptr, i32, i64, i64, ptr, ptr, ptr, i32, %struct.z_stream_s, ptr, ptr, i32, ptr, i32, i32, i32, i32, i32, ptr, i32, ptr, i32, i32, i32, i32, i32, i64, ptr, ptr, i64, i32, i32, i32, i32 }
%struct.HTTPAuthState = type { i32, [200 x i8], %struct.DigestParams, i32 }
%struct.DigestParams = type { [300 x i8], [10 x i8], [30 x i8], [300 x i8], [10 x i8], i32 }
%struct.z_stream_s = type { ptr, i32, i64, ptr, i32, i64, ptr, ptr, ptr, ptr, ptr, i32, i64, i64 }

@.str.100 = private unnamed_addr constant [8 x i8] c"%s: %s\0A\00", align 1

; Function Attrs: nounwind uwtable
define internal i32 @parse_icy(ptr noundef %0, ptr noundef %1, ptr noundef %2) #0 {
  %4 = alloca i32, align 4
  %5 = alloca ptr, align 8
  %6 = alloca ptr, align 8
  %7 = alloca ptr, align 8
  %8 = alloca i32, align 4
  %9 = alloca i32, align 4
  %10 = alloca i32, align 4
  %11 = alloca i32, align 4
  store ptr %0, ptr %5, align 8, !tbaa !21
  store ptr %1, ptr %6, align 8, !tbaa !17
  store ptr %2, ptr %7, align 8, !tbaa !17
  call void @llvm.lifetime.start.p0(i64 4, ptr %8) #11
  %12 = load ptr, ptr %7, align 8, !tbaa !17
  %13 = call i64 @strlen(ptr noundef %12) #12
  %14 = add i64 4, %13
  %15 = load ptr, ptr %6, align 8, !tbaa !17
  %16 = call i64 @strlen(ptr noundef %15) #12
  %17 = add i64 %14, %16
  %18 = trunc i64 %17 to i32
  store i32 %18, ptr %8, align 4, !tbaa !34
  call void @llvm.lifetime.start.p0(i64 4, ptr %9) #11
  %19 = load ptr, ptr %5, align 8, !tbaa !21
  %20 = getelementptr inbounds nuw %struct.HTTPContext, ptr %19, i32 0, i32 38
  %21 = load ptr, ptr %20, align 8, !tbaa !142
  %22 = icmp ne ptr %21, null
  %23 = xor i1 %22, true
  %24 = zext i1 %23 to i32
  store i32 %24, ptr %9, align 4, !tbaa !34
  call void @llvm.lifetime.start.p0(i64 4, ptr %10) #11
  %25 = load ptr, ptr %5, align 8, !tbaa !21
  %26 = getelementptr inbounds nuw %struct.HTTPContext, ptr %25, i32 0, i32 40
  %27 = load ptr, ptr %6, align 8, !tbaa !17
  %28 = load ptr, ptr %7, align 8, !tbaa !17
  %29 = call i32 @av_dict_set(ptr noundef %26, ptr noundef %27, ptr noundef %28, i32 noundef 0)
  %30 = load ptr, ptr %5, align 8, !tbaa !21
  %31 = getelementptr inbounds nuw %struct.HTTPContext, ptr %30, i32 0, i32 38
  %32 = load ptr, ptr %31, align 8, !tbaa !142
  %33 = icmp ne ptr %32, null
  br i1 %33, label %34, label %43

34:                                               ; preds = %3
  %35 = load ptr, ptr %5, align 8, !tbaa !21
  %36 = getelementptr inbounds nuw %struct.HTTPContext, ptr %35, i32 0, i32 38
  %37 = load ptr, ptr %36, align 8, !tbaa !142
  %38 = call i64 @strlen(ptr noundef %37) #12
  %39 = load i32, ptr %8, align 4, !tbaa !34
  %40 = sext i32 %39 to i64
  %41 = add i64 %40, %38
  %42 = trunc i64 %41 to i32
  store i32 %42, ptr %8, align 4, !tbaa !34
  br label %43

43:                                               ; preds = %34, %3
  %44 = load ptr, ptr %5, align 8, !tbaa !21
  %45 = getelementptr inbounds nuw %struct.HTTPContext, ptr %44, i32 0, i32 38
  %46 = load i32, ptr %8, align 4, !tbaa !34
  %47 = sext i32 %46 to i64
  %48 = call i32 @av_reallocp(ptr noundef %45, i64 noundef %47)
  store i32 %48, ptr %10, align 4, !tbaa !34
  %49 = icmp slt i32 %48, 0
  br i1 %49, label %50, label %52

50:                                               ; preds = %43
  %51 = load i32, ptr %10, align 4, !tbaa !34
  store i32 %51, ptr %4, align 4
  store i32 1, ptr %11, align 4
  br label %68

52:                                               ; preds = %43
  %53 = load i32, ptr %9, align 4, !tbaa !34
  %54 = icmp ne i32 %53, 0
  br i1 %54, label %55, label %59

55:                                               ; preds = %52
  %56 = load ptr, ptr %5, align 8, !tbaa !21
  %57 = getelementptr inbounds nuw %struct.HTTPContext, ptr %56, i32 0, i32 38
  %58 = load ptr, ptr %57, align 8, !tbaa !142
  store i8 0, ptr %58, align 1, !tbaa !64
  br label %59

59:                                               ; preds = %55, %52
  %60 = load ptr, ptr %5, align 8, !tbaa !21
  %61 = getelementptr inbounds nuw %struct.HTTPContext, ptr %60, i32 0, i32 38
  %62 = load ptr, ptr %61, align 8, !tbaa !142
  %63 = load i32, ptr %8, align 4, !tbaa !34
  %64 = sext i32 %63 to i64
  %65 = load ptr, ptr %6, align 8, !tbaa !17
  %66 = load ptr, ptr %7, align 8, !tbaa !17
  %67 = call i64 (ptr, i64, ptr, ...) @av_strlcatf(ptr noundef %62, i64 noundef %64, ptr noundef @.str.100, ptr noundef %65, ptr noundef %66)
  store i32 0, ptr %4, align 4
  store i32 1, ptr %11, align 4
  br label %68

68:                                               ; preds = %59, %50
  call void @llvm.lifetime.end.p0(i64 4, ptr %10) #11
  call void @llvm.lifetime.end.p0(i64 4, ptr %9) #11
  call void @llvm.lifetime.end.p0(i64 4, ptr %8) #11
  %69 = load i32, ptr %4, align 4
  ret i32 %69
}