; Function Attrs: nounwind uwtable
define internal fastcc range(i32 -2147483648, 1) i32 @parse_icy(ptr noundef %0, ptr noundef nonnull %1, ptr noundef %2) unnamed_addr #2 {
  %4 = tail call i64 @strlen(ptr noundef nonnull dereferenceable(1) %2) #16
  %5 = add i64 %4, 4
  %6 = tail call i64 @strlen(ptr noundef nonnull dereferenceable(1) %1) #16
  %7 = add i64 %5, %6
  %8 = getelementptr inbounds nuw i8, ptr %0, i64 10160
  %9 = load ptr, ptr %8, align 8, !tbaa !125
  %.not = icmp eq ptr %9, null
  %10 = getelementptr inbounds nuw i8, ptr %0, i64 10176
  %11 = tail call i32 @av_dict_set(ptr noundef nonnull %10, ptr noundef nonnull %1, ptr noundef nonnull %2, i32 noundef 0) #15
  %12 = load ptr, ptr %8, align 8, !tbaa !125
  %.not21 = icmp eq ptr %12, null
  br i1 %.not21, label %16, label %13

13:                                               ; preds = %3
  %14 = tail call i64 @strlen(ptr noundef nonnull dereferenceable(1) %12) #16
  %15 = add i64 %14, %7
  br label %16

16:                                               ; preds = %13, %3
  %.018.in = phi i64 [ %15, %13 ], [ %7, %3 ]
  %sext = shl i64 %.018.in, 32
  %17 = ashr exact i64 %sext, 32
  %18 = tail call i32 @av_reallocp(ptr noundef nonnull %8, i64 noundef %17) #15
  %19 = icmp slt i32 %18, 0
  br i1 %19, label %26, label %20

20:                                               ; preds = %16
  br i1 %.not, label %21, label %23

21:                                               ; preds = %20
  %22 = load ptr, ptr %8, align 8, !tbaa !125
  store i8 0, ptr %22, align 1, !tbaa !44
  br label %23

23:                                               ; preds = %21, %20
  %24 = load ptr, ptr %8, align 8, !tbaa !125
  %25 = tail call i64 (ptr, i64, ptr, ...) @av_strlcatf(ptr noundef %24, i64 noundef %17, ptr noundef nonnull @.str.100, ptr noundef nonnull %1, ptr noundef nonnull %2) #15
  br label %26

26:                                               ; preds = %16, %23
  %.0 = phi i32 [ 0, %23 ], [ %18, %16 ]
  ret i32 %.0
}